target datalayout = "e-m:e-p270:32:32-p271:32:32-p272:64:64-i64:64-i128:128-f80:128-n8:16:32:64-S128"
target triple = "x86_64-pc-linux-gnu"

%struct.winsize = type { i16, i16, i16, i16 }
%struct.printTableOpt = type { i32, i16, i32, i32, i16, i16, i32, i8, i8, i8, i8, i64, ptr, %struct.separator, %struct.separator, [2 x i8], i8, ptr, i32, i32, i32, i32, i32, i32 }
%struct.separator = type { ptr, i8 }

@always_ignore_sigpipe = internal global i8 0, align 1
@stdin = external global ptr, align 8
@stdout = external global ptr, align 8
@.str.16 = private unnamed_addr constant [11 x i8] c"PSQL_PAGER\00", align 1
@.str.17 = private unnamed_addr constant [6 x i8] c"PAGER\00", align 1
@.str.18 = private unnamed_addr constant [5 x i8] c"more\00", align 1
@.str.19 = private unnamed_addr constant [5 x i8] c" \09\0D\0A\00", align 1
@.str.20 = private unnamed_addr constant [2 x i8] c"w\00", align 1

; Function Attrs: nounwind uwtable
define dso_local void @restore_sigpipe_trap() #0 {
  %1 = load i8, ptr @always_ignore_sigpipe, align 1, !range !4, !noundef !5
  %2 = trunc i8 %1 to i1
  %3 = select i1 %2, ptr inttoptr (i64 1 to ptr), ptr null
  call void @pqsignal_fe(i32 noundef 13, ptr noundef %3)
  ret void
}

; Function Attrs: nounwind uwtable
define dso_local void @disable_sigpipe_trap() #0 {
  call void @pqsignal_fe(i32 noundef 13, ptr noundef inttoptr (i64 1 to ptr))
  ret void
}

; Function Attrs: nounwind uwtable
define dso_local ptr @PageOutput(i32 noundef %0, ptr noundef %1) #0 {
  %3 = alloca ptr, align 8
  %4 = alloca i32, align 4
  %5 = alloca ptr, align 8
  %6 = alloca i16, align 2
  %7 = alloca i32, align 4
  %8 = alloca i32, align 4
  %9 = alloca %struct.winsize, align 2
  %10 = alloca ptr, align 8
  %11 = alloca ptr, align 8
  %12 = alloca i32, align 4
  store i32 %0, ptr %4, align 4
  store ptr %1, ptr %5, align 8
  %13 = load ptr, ptr %5, align 8
  %14 = icmp ne ptr %13, null
  br i1 %14, label %15, label %92

15:                                               ; preds = %2
  %16 = load ptr, ptr %5, align 8
  %17 = getelementptr inbounds nuw %struct.printTableOpt, ptr %16, i32 0, i32 5
  %18 = load i16, ptr %17, align 2
  %19 = zext i16 %18 to i32
  %20 = icmp ne i32 %19, 0
  br i1 %20, label %21, label %92

21:                                               ; preds = %15
  %22 = load ptr, ptr @stdin, align 8
  %23 = call i32 @fileno(ptr noundef %22) #8
  %24 = call i32 @isatty(i32 noundef %23) #8
  %25 = icmp ne i32 %24, 0
  br i1 %25, label %26, label %92

26:                                               ; preds = %21
  %27 = load ptr, ptr @stdout, align 8
  %28 = call i32 @fileno(ptr noundef %27) #8
  %29 = call i32 @isatty(i32 noundef %28) #8
  %30 = icmp ne i32 %29, 0
  br i1 %30, label %31, label %92

31:                                               ; preds = %26
  call void @llvm.lifetime.start.p0(i64 2, ptr %6) #8
  %32 = load ptr, ptr %5, align 8
  %33 = getelementptr inbounds nuw %struct.printTableOpt, ptr %32, i32 0, i32 5
  %34 = load i16, ptr %33, align 2
  store i16 %34, ptr %6, align 2
  call void @llvm.lifetime.start.p0(i64 4, ptr %7) #8
  %35 = load ptr, ptr %5, align 8
  %36 = getelementptr inbounds nuw %struct.printTableOpt, ptr %35, i32 0, i32 6
  %37 = load i32, ptr %36, align 4
  store i32 %37, ptr %7, align 4
  call void @llvm.lifetime.start.p0(i64 4, ptr %8) #8
  call void @llvm.lifetime.start.p0(i64 8, ptr %9) #8
  %38 = load ptr, ptr @stdout, align 8
  %39 = call i32 @fileno(ptr noundef %38) #8
  %40 = call i32 (i32, i64, ...) @ioctl(i32 noundef %39, i64 noundef 21523, ptr noundef %9) #8
  store i32 %40, ptr %8, align 4
  %41 = load i32, ptr %8, align 4
  %42 = icmp eq i32 %41, -1
  br i1 %42, label %57, label %43

43:                                               ; preds = %31
  %44 = load i32, ptr %4, align 4
  %45 = getelementptr inbounds nuw %struct.winsize, ptr %9, i32 0, i32 0
  %46 = load i16, ptr %45, align 2
  %47 = zext i16 %46 to i32
  %48 = icmp sge i32 %44, %47
  br i1 %48, label %49, label %53

49:                                               ; preds = %43
  %50 = load i32, ptr %4, align 4
  %51 = load i32, ptr %7, align 4
  %52 = icmp sge i32 %50, %51
  br i1 %52, label %57, label %53

53:                                               ; preds = %49, %43
  %54 = load i16, ptr %6, align 2
  %55 = zext i16 %54 to i32
  %56 = icmp sgt i32 %55, 1
  br i1 %56, label %57, label %88

57:                                               ; preds = %53, %49, %31
  call void @llvm.lifetime.start.p0(i64 8, ptr %10) #8
  call void @llvm.lifetime.start.p0(i64 8, ptr %11) #8
  %58 = call ptr @getenv(ptr noundef @.str.16) #8
  store ptr %58, ptr %10, align 8
  %59 = load ptr, ptr %10, align 8
  %60 = icmp ne ptr %59, null
  br i1 %60, label %63, label %61

61:                                               ; preds = %57
  %62 = call ptr @getenv(ptr noundef @.str.17) #8
  store ptr %62, ptr %10, align 8
  br label %63

63:                                               ; preds = %61, %57
  %64 = load ptr, ptr %10, align 8
  %65 = icmp ne ptr %64, null
  br i1 %65, label %67, label %66

66:                                               ; preds = %63
  store ptr @.str.18, ptr %10, align 8
  br label %76

67:                                               ; preds = %63
  %68 = load ptr, ptr %10, align 8
  %69 = call i64 @strspn(ptr noundef %68, ptr noundef @.str.19) #9
  %70 = load ptr, ptr %10, align 8
  %71 = call i64 @strlen(ptr noundef %70) #9
  %72 = icmp eq i64 %69, %71
  br i1 %72, label %73, label %75

73:                                               ; preds = %67
  %74 = load ptr, ptr @stdout, align 8
  store ptr %74, ptr %3, align 8
  store i32 1, ptr %12, align 4
  br label %85

75:                                               ; preds = %67
  br label %76

76:                                               ; preds = %75, %66
  %77 = call i32 @fflush(ptr noundef null)
  call void @disable_sigpipe_trap()
  %78 = load ptr, ptr %10, align 8
  %79 = call noalias ptr @popen(ptr noundef %78, ptr noundef @.str.20)
  store ptr %79, ptr %11, align 8
  %80 = load ptr, ptr %11, align 8
  %81 = icmp ne ptr %80, null
  br i1 %81, label %82, label %84

82:                                               ; preds = %76
  %83 = load ptr, ptr %11, align 8
  store ptr %83, ptr %3, align 8
  store i32 1, ptr %12, align 4
  br label %85

84:                                               ; preds = %76
  call void @restore_sigpipe_trap()
  store i32 0, ptr %12, align 4
  br label %85

85:                                               ; preds = %84, %82, %73
  call void @llvm.lifetime.end.p0(i64 8, ptr %11) #8
  call void @llvm.lifetime.end.p0(i64 8, ptr %10) #8
  %86 = load i32, ptr %12, align 4
  switch i32 %86, label %89 [
    i32 0, label %87
  ]

87:                                               ; preds = %85
  br label %88

88:                                               ; preds = %87, %53
  store i32 0, ptr %12, align 4
  br label %89

89:                                               ; preds = %88, %85
  call void @llvm.lifetime.end.p0(i64 8, ptr %9) #8
  call void @llvm.lifetime.end.p0(i64 4, ptr %8) #8
  call void @llvm.lifetime.end.p0(i64 4, ptr %7) #8
  call void @llvm.lifetime.end.p0(i64 2, ptr %6) #8
  %90 = load i32, ptr %12, align 4
  switch i32 %90, label %96 [
    i32 0, label %91
    i32 1, label %94
  ]

91:                                               ; preds = %89
  br label %92

92:                                               ; preds = %91, %26, %21, %15, %2
  %93 = load ptr, ptr @stdout, align 8
  store ptr %93, ptr %3, align 8
  br label %94

94:                                               ; preds = %92, %89
  %95 = load ptr, ptr %3, align 8
  ret ptr %95

96:                                               ; preds = %89
  unreachable
}