; Function Attrs: nounwind uwtable
define dso_local ptr @PageOutput(i32 noundef %0, ptr noundef readonly captures(address_is_null) %1) local_unnamed_addr #3 {
  %3 = alloca %struct.winsize, align 2
  %.not = icmp eq ptr %1, null
  br i1 %.not, label %47, label %4

4:                                                ; preds = %2
  %5 = getelementptr inbounds nuw i8, ptr %1, i64 18
  %6 = load i16, ptr %5, align 2
  %.not29 = icmp eq i16 %6, 0
  br i1 %.not29, label %47, label %7

7:                                                ; preds = %4
  %8 = load ptr, ptr @stdin, align 8
  %9 = tail call i32 @fileno(ptr noundef %8) #19
  %10 = tail call i32 @isatty(i32 noundef %9) #19
  %.not30 = icmp eq i32 %10, 0
  br i1 %.not30, label %47, label %11

11:                                               ; preds = %7
  %12 = load ptr, ptr @stdout, align 8
  %13 = tail call i32 @fileno(ptr noundef %12) #19
  %14 = tail call i32 @isatty(i32 noundef %13) #19
  %.not31 = icmp eq i32 %14, 0
  br i1 %.not31, label %47, label %15

15:                                               ; preds = %11
  %16 = load i16, ptr %5, align 2
  %17 = getelementptr inbounds nuw i8, ptr %1, i64 20
  %18 = load i32, ptr %17, align 4
  call void @llvm.lifetime.start.p0(i64 8, ptr nonnull %3) #19
  %19 = load ptr, ptr @stdout, align 8
  %20 = tail call i32 @fileno(ptr noundef %19) #19
  %21 = call i32 (i32, i64, ...) @ioctl(i32 noundef %20, i64 noundef 21523, ptr noundef nonnull %3) #19
  %22 = icmp eq i32 %21, -1
  br i1 %22, label %30, label %23

23:                                               ; preds = %15
  %24 = load i16, ptr %3, align 2
  %25 = zext i16 %24 to i32
  %.not32 = icmp slt i32 %0, %25
  br i1 %.not32, label %29, label %26

26:                                               ; preds = %23
  %27 = icmp sge i32 %0, %18
  %28 = icmp ugt i16 %16, 1
  %or.cond = select i1 %27, i1 true, i1 %28
  br i1 %or.cond, label %30, label %.thread44

29:                                               ; preds = %23
  %.old2 = icmp ugt i16 %16, 1
  br i1 %.old2, label %30, label %.thread44

30:                                               ; preds = %29, %26, %15
  %31 = call ptr @getenv(ptr noundef nonnull @.str.16) #19
  %.not33 = icmp eq ptr %31, null
  br i1 %.not33, label %32, label %.thread

32:                                               ; preds = %30
  %33 = call ptr @getenv(ptr noundef nonnull @.str.17) #19
  %.not34 = icmp eq ptr %33, null
  br i1 %.not34, label %39, label %.thread

.thread:                                          ; preds = %30, %32
  %.02338 = phi ptr [ %33, %32 ], [ %31, %30 ]
  %34 = call i64 @strspn(ptr noundef nonnull %.02338, ptr noundef nonnull @.str.19) #20
  %35 = call i64 @strlen(ptr noundef nonnull dereferenceable(1) %.02338) #20
  %36 = icmp eq i64 %34, %35
  br i1 %36, label %37, label %39

37:                                               ; preds = %.thread
  %38 = load ptr, ptr @stdout, align 8
  br label %46

39:                                               ; preds = %32, %.thread
  %.124 = phi ptr [ %.02338, %.thread ], [ @.str.18, %32 ]
  %40 = call i32 @fflush(ptr noundef null)
  call void @pqsignal_fe(i32 noundef 13, ptr noundef nonnull inttoptr (i64 1 to ptr)) #19
  %41 = call noalias ptr @popen(ptr noundef nonnull %.124, ptr noundef nonnull @.str.20)
  %.not35 = icmp eq ptr %41, null
  br i1 %.not35, label %42, label %46

42:                                               ; preds = %39
  %43 = load i8, ptr @always_ignore_sigpipe, align 1, !range !6, !noundef !7
  %44 = trunc nuw i8 %43 to i1
  %45 = select i1 %44, ptr inttoptr (i64 1 to ptr), ptr null
  call void @pqsignal_fe(i32 noundef 13, ptr noundef %45) #19
  br label %.thread44

.thread44:                                        ; preds = %26, %29, %42
  call void @llvm.lifetime.end.p0(i64 8, ptr nonnull %3) #19
  br label %47

46:                                               ; preds = %37, %39
  %.122.ph = phi ptr [ %41, %39 ], [ %38, %37 ]
  call void @llvm.lifetime.end.p0(i64 8, ptr nonnull %3) #19
  br label %49

47:                                               ; preds = %.thread44, %11, %7, %4, %2
  %48 = load ptr, ptr @stdout, align 8
  br label %49

49:                                               ; preds = %46, %47
  %.3 = phi ptr [ %.122.ph, %46 ], [ %48, %47 ]
  ret ptr %.3
}